; Function Attrs: nofree nounwind uwtable
define void @Fxu_HeapSinglePrint(ptr noundef captures(none) %0, ptr noundef captures(none) %1) local_unnamed_addr #4 {
  %3 = getelementptr inbounds nuw i8, ptr %1, i64 8
  %4 = load i32, ptr %3, align 8, !tbaa !13
  %.not10.i = icmp slt i32 %4, 1
  br i1 %.not10.i, label %Fxu_HeapSingleCheck.exit, label %.lr.ph.i

.lr.ph.i:                                         ; preds = %2
  %5 = load ptr, ptr %1, align 8, !tbaa !10
  %6 = add nuw i32 %4, 1
  %wide.trip.count.i = zext i32 %6 to i64
  br label %7

7:                                                ; preds = %10, %.lr.ph.i
  %indvars.iv.i = phi i64 [ 1, %.lr.ph.i ], [ %indvars.iv.next.i, %10 ]
  %8 = getelementptr inbounds nuw ptr, ptr %5, i64 %indvars.iv.i
  %9 = load ptr, ptr %8, align 8, !tbaa !11
  %.not9.i = icmp eq ptr %9, null
  br i1 %.not9.i, label %.critedge.loopexit.split.loop.exit15.i, label %10

10:                                               ; preds = %7
  %indvars.iv.next.i = add nuw nsw i64 %indvars.iv.i, 1
  %exitcond.not.i = icmp eq i64 %indvars.iv.next.i, %wide.trip.count.i
  br i1 %exitcond.not.i, label %Fxu_HeapSingleCheck.exit, label %7, !llvm.loop !14

.critedge.loopexit.split.loop.exit15.i:           ; preds = %7
  %11 = trunc nuw nsw i64 %indvars.iv.i to i32
  br label %Fxu_HeapSingleCheck.exit

Fxu_HeapSingleCheck.exit:                         ; preds = %10, %2, %.critedge.loopexit.split.loop.exit15.i
  %storemerge.lcssa.i = phi i32 [ 1, %2 ], [ %11, %.critedge.loopexit.split.loop.exit15.i ], [ %6, %10 ]
  %12 = getelementptr inbounds nuw i8, ptr %1, i64 16
  store i32 %storemerge.lcssa.i, ptr %12, align 8, !tbaa !16
  %13 = tail call i64 @fwrite(ptr nonnull @.str, i64 26, i64 1, ptr %0)
  %14 = tail call i32 (ptr, ptr, ...) @fprintf(ptr noundef %0, ptr noundef nonnull @.str.1, i32 noundef 1) #15
  store i32 1, ptr %12, align 8, !tbaa !16
  %15 = load i32, ptr %3, align 8, !tbaa !13
  %.not26 = icmp slt i32 %15, 1
  br i1 %.not26, label %.critedge, label %.lr.ph

.lr.ph:                                           ; preds = %Fxu_HeapSingleCheck.exit, %33
  %indvars.iv = phi i64 [ %indvars.iv.next, %33 ], [ 1, %Fxu_HeapSingleCheck.exit ]
  %.029 = phi i32 [ %.1, %33 ], [ 1, %Fxu_HeapSingleCheck.exit ]
  %storemerge27 = phi i32 [ %35, %33 ], [ 1, %Fxu_HeapSingleCheck.exit ]
  %16 = load ptr, ptr %1, align 8, !tbaa !10
  %17 = sext i32 %storemerge27 to i64
  %18 = getelementptr inbounds ptr, ptr %16, i64 %17
  %19 = load ptr, ptr %18, align 8, !tbaa !11
  %.not23 = icmp eq ptr %19, null
  br i1 %.not23, label %.critedge, label %20

20:                                               ; preds = %.lr.ph
  %21 = getelementptr inbounds nuw ptr, ptr %16, i64 %indvars.iv
  %22 = load ptr, ptr %21, align 8, !tbaa !11
  %23 = getelementptr inbounds nuw i8, ptr %22, i64 8
  %24 = load i32, ptr %23, align 8, !tbaa !17
  %25 = trunc nuw nsw i64 %indvars.iv to i32
  %26 = tail call i32 (ptr, ptr, ...) @fprintf(ptr noundef %0, ptr noundef nonnull @.str.2, i32 noundef %25, i32 noundef %24) #15
  %indvars.iv.next = add nuw nsw i64 %indvars.iv, 1
  %27 = shl nuw i32 1, %.029
  %28 = zext i32 %27 to i64
  %29 = icmp eq i64 %indvars.iv.next, %28
  br i1 %29, label %30, label %33

30:                                               ; preds = %20
  %fputc24 = tail call i32 @fputc(i32 10, ptr %0)
  %31 = add nsw i32 %.029, 1
  %32 = tail call i32 (ptr, ptr, ...) @fprintf(ptr noundef %0, ptr noundef nonnull @.str.1, i32 noundef %31) #15
  br label %33

33:                                               ; preds = %20, %30
  %.1 = phi i32 [ %31, %30 ], [ %.029, %20 ]
  %34 = load i32, ptr %12, align 8, !tbaa !16
  %35 = add nsw i32 %34, 1
  store i32 %35, ptr %12, align 8, !tbaa !16
  %36 = load i32, ptr %3, align 8, !tbaa !13
  %.not.not = icmp slt i32 %34, %36
  br i1 %.not.not, label %.lr.ph, label %.critedge, !llvm.loop !20

.critedge:                                        ; preds = %.lr.ph, %33, %Fxu_HeapSingleCheck.exit
  %fputc = tail call i32 @fputc(i32 10, ptr %0)
  %37 = tail call i64 @fwrite(ptr nonnull @.str.4, i64 26, i64 1, ptr %0)
  ret void
}